target datalayout = "e-m:e-p270:32:32-p271:32:32-p272:64:64-i64:64-i128:128-f80:128-n8:16:32:64-S128"
target triple = "x86_64-pc-linux-gnu"

%"struct.absl::cord_internal::CordRep" = type { i64, %"class.absl::cord_internal::RefcountAndFlags", i8, [3 x i8] }
%"class.absl::cord_internal::RefcountAndFlags" = type { %"struct.std::atomic" }
%"struct.std::atomic" = type { %"struct.std::__atomic_base" }
%"struct.std::__atomic_base" = type { i32 }

; Function Attrs: mustprogress nounwind uwtable
define linkonce_odr dso_local noundef i32 @_ZNK4absl13cord_internal12CordRepBtree6heightEv(ptr noundef nonnull align 8 dereferenceable(64) %0) #6 comdat align 2 {
  %2 = alloca ptr, align 8
  store ptr %0, ptr %2, align 8, !tbaa !4
  %3 = load ptr, ptr %2, align 8
  %4 = getelementptr inbounds nuw %"struct.absl::cord_internal::CordRep", ptr %3, i32 0, i32 3
  %5 = getelementptr inbounds [3 x i8], ptr %4, i64 0, i64 0
  %6 = load i8, ptr %5, align 1, !tbaa !23
  %7 = zext i8 %6 to i32
  ret i32 %7
}

; Function Attrs: mustprogress uwtable
define dso_local noundef ptr @_ZN4absl13cord_internal12CordRepBtree10MergeTreesEPS1_S2_(ptr noundef %0, ptr noundef %1) #4 align 2 {
  %3 = alloca ptr, align 8
  %4 = alloca ptr, align 8
  store ptr %0, ptr %3, align 8, !tbaa !4
  store ptr %1, ptr %4, align 8, !tbaa !4
  %5 = load ptr, ptr %3, align 8, !tbaa !4
  %6 = call noundef i32 @_ZNK4absl13cord_internal12CordRepBtree6heightEv(ptr noundef nonnull align 8 dereferenceable(64) %5)
  %7 = load ptr, ptr %4, align 8, !tbaa !4
  %8 = call noundef i32 @_ZNK4absl13cord_internal12CordRepBtree6heightEv(ptr noundef nonnull align 8 dereferenceable(64) %7)
  %9 = icmp sge i32 %6, %8
  br i1 %9, label %10, label %14

10:                                               ; preds = %2
  %11 = load ptr, ptr %3, align 8, !tbaa !4
  %12 = load ptr, ptr %4, align 8, !tbaa !4
  %13 = call noundef ptr @_ZN4absl13cord_internal12CordRepBtree5MergeILNS1_8EdgeTypeE1EEEPS1_S4_S4_(ptr noundef %11, ptr noundef %12)
  br label %18

14:                                               ; preds = %2
  %15 = load ptr, ptr %4, align 8, !tbaa !4
  %16 = load ptr, ptr %3, align 8, !tbaa !4
  %17 = call noundef ptr @_ZN4absl13cord_internal12CordRepBtree5MergeILNS1_8EdgeTypeE0EEEPS1_S4_S4_(ptr noundef %15, ptr noundef %16)
  br label %18

18:                                               ; preds = %14, %10
  %19 = phi ptr [ %13, %10 ], [ %17, %14 ]
  ret ptr %19
}