; Function Attrs: mustprogress uwtable
define dso_local noundef ptr @_ZN4absl13cord_internal12CordRepBtree10MergeTreesEPS1_S2_(ptr noundef %0, ptr noundef %1) local_unnamed_addr #3 align 2 {
  %3 = getelementptr inbounds nuw i8, ptr %0, i64 13
  %4 = load i8, ptr %3, align 1, !tbaa !4
  %5 = getelementptr inbounds nuw i8, ptr %1, i64 13
  %6 = load i8, ptr %5, align 1, !tbaa !4
  %.not = icmp ult i8 %4, %6
  br i1 %.not, label %9, label %7

7:                                                ; preds = %2
  %8 = tail call noundef ptr @_ZN4absl13cord_internal12CordRepBtree5MergeILNS1_8EdgeTypeE1EEEPS1_S4_S4_(ptr noundef nonnull %0, ptr noundef nonnull %1)
  br label %11

9:                                                ; preds = %2
  %10 = tail call noundef ptr @_ZN4absl13cord_internal12CordRepBtree5MergeILNS1_8EdgeTypeE0EEEPS1_S4_S4_(ptr noundef nonnull %1, ptr noundef nonnull %0)
  br label %11

11:                                               ; preds = %9, %7
  %12 = phi ptr [ %8, %7 ], [ %10, %9 ]
  ret ptr %12
}